	.file	"simple_syscall_test.c"
	.text
.Ltext0:
	.file 0 "/mnt/f/hillson_test_os/zhwh_os/test" "simple_syscall_test.c"
	.type	syscall_putchar, @function
syscall_putchar:
.LFB0:
	.file 1 "simple_syscall_test.c"
	.loc 1 8 44
	.cfi_startproc
	pushl	%ebp
	.cfi_def_cfa_offset 8
	.cfi_offset 5, -8
	movl	%esp, %ebp
	.cfi_def_cfa_register 5
	pushl	%ebx
	subl	$4, %esp
	.cfi_offset 3, -12
	movl	8(%ebp), %eax
	movb	%al, -8(%ebp)
	.loc 1 9 5
	movl	$8, %eax
	movzbl	-8(%ebp), %edx
	movl	%edx, %ebx
#APP
# 9 "simple_syscall_test.c" 1
	int $0x80
# 0 "" 2
	.loc 1 15 1
#NO_APP
	nop
	movl	-4(%ebp), %ebx
	leave
	.cfi_restore 5
	.cfi_restore 3
	.cfi_def_cfa 4, 4
	ret
	.cfi_endproc
.LFE0:
	.size	syscall_putchar, .-syscall_putchar
	.globl	_start
	.type	_start, @function
_start:
.LFB1:
	.loc 1 18 19
	.cfi_startproc
	pushl	%ebp
	.cfi_def_cfa_offset 8
	.cfi_offset 5, -8
	movl	%esp, %ebp
	.cfi_def_cfa_register 5
	.loc 1 20 5
	pushl	$84
	call	syscall_putchar
	addl	$4, %esp
	.loc 1 21 5
	pushl	$101
	call	syscall_putchar
	addl	$4, %esp
	.loc 1 22 5
	pushl	$115
	call	syscall_putchar
	addl	$4, %esp
	.loc 1 23 5
	pushl	$116
	call	syscall_putchar
	addl	$4, %esp
	.loc 1 24 5
	pushl	$32
	call	syscall_putchar
	addl	$4, %esp
	.loc 1 25 5
	pushl	$79
	call	syscall_putchar
	addl	$4, %esp
	.loc 1 26 5
	pushl	$75
	call	syscall_putchar
	addl	$4, %esp
	.loc 1 27 5
	pushl	$10
	call	syscall_putchar
	addl	$4, %esp
.L3:
	.loc 1 31 9 discriminator 1
#APP
# 31 "simple_syscall_test.c" 1
	jmp .
# 0 "" 2
#NO_APP
	jmp	.L3
	.cfi_endproc
.LFE1:
	.size	_start, .-_start
.Letext0:
	.section	.note.GNU-stack,"",@progbits
